; Function Attrs: nounwind uwtable
define dso_local void @ReorderBufferPrepare(ptr noundef %0, i32 noundef %1, ptr noundef %2) local_unnamed_addr #0 {
  %4 = alloca i32, align 4
  %5 = alloca i8, align 1
  call void @llvm.lifetime.start.p0(i64 4, ptr nonnull %4)
  store i32 %1, ptr %4, align 4
  call void @llvm.lifetime.start.p0(i64 1, ptr nonnull %5) #19
  %6 = getelementptr inbounds nuw i8, ptr %0, i64 64
  %7 = load i32, ptr %6, align 8
  %.not.i = icmp ne i32 %7, 0
  %8 = icmp eq i32 %7, %1
  %or.cond.i = and i1 %.not.i, %8
  br i1 %or.cond.i, label %9, label %12

9:                                                ; preds = %3
  %10 = getelementptr inbounds nuw i8, ptr %0, i64 72
  %11 = load ptr, ptr %10, align 8
  %.not34.i = icmp eq ptr %11, null
  call void @llvm.lifetime.end.p0(i64 1, ptr nonnull %5) #19
  call void @llvm.lifetime.end.p0(i64 4, ptr nonnull %4)
  br i1 %.not34.i, label %ReorderBufferTXNByXid.exit.thread, label %ReorderBufferTXNByXid.exit.thread19

12:                                               ; preds = %3
  %13 = load ptr, ptr %0, align 8
  %14 = call ptr @hash_search(ptr noundef %13, ptr noundef nonnull %4, i32 noundef 0, ptr noundef nonnull %5) #19
  %15 = load i8, ptr %5, align 1, !range !6, !noundef !7
  %16 = trunc nuw i8 %15 to i1
  br i1 %16, label %ReorderBufferTXNByXid.exit, label %ReorderBufferTXNByXid.exit.thread22

ReorderBufferTXNByXid.exit.thread22:              ; preds = %12
  %17 = load i32, ptr %4, align 4
  store i32 %17, ptr %6, align 8
  %18 = getelementptr inbounds nuw i8, ptr %0, i64 72
  store ptr null, ptr %18, align 8
  call void @llvm.lifetime.end.p0(i64 1, ptr nonnull %5) #19
  call void @llvm.lifetime.end.p0(i64 4, ptr nonnull %4)
  br label %ReorderBufferTXNByXid.exit.thread

ReorderBufferTXNByXid.exit:                       ; preds = %12
  %19 = getelementptr inbounds nuw i8, ptr %14, i64 8
  %20 = load ptr, ptr %19, align 8
  %21 = load i32, ptr %4, align 4
  store i32 %21, ptr %6, align 8
  %22 = getelementptr inbounds nuw i8, ptr %0, i64 72
  store ptr %20, ptr %22, align 8
  call void @llvm.lifetime.end.p0(i64 1, ptr nonnull %5) #19
  call void @llvm.lifetime.end.p0(i64 4, ptr nonnull %4)
  %23 = icmp eq ptr %20, null
  br i1 %23, label %ReorderBufferTXNByXid.exit.thread, label %ReorderBufferTXNByXid.exit.thread19

ReorderBufferTXNByXid.exit.thread19:              ; preds = %9, %ReorderBufferTXNByXid.exit
  %.0.i21 = phi ptr [ %20, %ReorderBufferTXNByXid.exit ], [ %11, %9 ]
  %24 = call ptr @pstrdup(ptr noundef %2) #19
  %25 = getelementptr inbounds nuw i8, ptr %.0.i21, i64 16
  store ptr %24, ptr %25, align 8
  %26 = getelementptr inbounds nuw i8, ptr %.0.i21, i64 32
  %27 = load i64, ptr %26, align 8
  %28 = getelementptr inbounds nuw i8, ptr %.0.i21, i64 40
  %29 = load i64, ptr %28, align 8
  %30 = getelementptr inbounds nuw i8, ptr %.0.i21, i64 80
  %31 = load i64, ptr %30, align 8
  %32 = getelementptr inbounds nuw i8, ptr %.0.i21, i64 64
  %33 = load i16, ptr %32, align 8
  %34 = getelementptr inbounds nuw i8, ptr %.0.i21, i64 72
  %35 = load i64, ptr %34, align 8
  call fastcc void @ReorderBufferReplay(ptr noundef %.0.i21, ptr noundef nonnull %0, i64 noundef %27, i64 noundef %29, i64 noundef %31, i16 noundef zeroext %33, i64 noundef %35)
  %36 = load i32, ptr %.0.i21, align 8
  %37 = and i32 %36, 512
  %.not = icmp eq i32 %37, 0
  br i1 %.not, label %38, label %ReorderBufferTXNByXid.exit.thread

38:                                               ; preds = %ReorderBufferTXNByXid.exit.thread19
  %39 = getelementptr inbounds nuw i8, ptr %0, i64 128
  %40 = load ptr, ptr %39, align 8
  %41 = load i64, ptr %26, align 8
  call void %40(ptr noundef nonnull %0, ptr noundef nonnull %.0.i21, i64 noundef %41) #19
  %42 = load i32, ptr %.0.i21, align 8
  %43 = or i32 %42, 512
  store i32 %43, ptr %.0.i21, align 8
  br label %ReorderBufferTXNByXid.exit.thread

ReorderBufferTXNByXid.exit.thread:                ; preds = %9, %ReorderBufferTXNByXid.exit.thread22, %ReorderBufferTXNByXid.exit.thread19, %38, %ReorderBufferTXNByXid.exit
  ret void
}